target datalayout = "e-m:e-p270:32:32-p271:32:32-p272:64:64-i64:64-i128:128-f80:128-n8:16:32:64-S128"
target triple = "x86_64-pc-linux-gnu"

@stderr = external global ptr, align 8
@.str.7 = private unnamed_addr constant [64 x i8] c"icupkg/makeTargetName(%s) target item name length %ld too long\0A\00", align 1

; Function Attrs: inlinehint mustprogress nounwind uwtable
define internal noundef signext i8 @_ZL9U_SUCCESS10UErrorCode(i32 noundef %0) #3 {
  %2 = alloca i32, align 4
  store i32 %0, ptr %2, align 4, !tbaa !11
  %3 = load i32, ptr %2, align 4, !tbaa !11
  %4 = icmp sle i32 %3, 0
  %5 = zext i1 %4 to i8
  ret i8 %5
}

; Function Attrs: mustprogress nounwind uwtable
define internal void @_ZN6icu_77L14makeTargetNameEPKcS1_iS1_PciP10UErrorCode(ptr noundef %0, ptr noundef %1, i32 noundef %2, ptr noundef %3, ptr noundef %4, i32 noundef %5, ptr noundef %6) #4 {
  %8 = alloca ptr, align 8
  %9 = alloca ptr, align 8
  %10 = alloca i32, align 4
  %11 = alloca ptr, align 8
  %12 = alloca ptr, align 8
  %13 = alloca i32, align 4
  %14 = alloca ptr, align 8
  %15 = alloca ptr, align 8
  %16 = alloca i32, align 4
  %17 = alloca i32, align 4
  %18 = alloca i32, align 4
  %19 = alloca i32, align 4
  store ptr %0, ptr %8, align 8, !tbaa !31
  store ptr %1, ptr %9, align 8, !tbaa !31
  store i32 %2, ptr %10, align 4, !tbaa !18
  store ptr %3, ptr %11, align 8, !tbaa !31
  store ptr %4, ptr %12, align 8, !tbaa !31
  store i32 %5, ptr %13, align 4, !tbaa !18
  store ptr %6, ptr %14, align 8, !tbaa !10
  call void @llvm.lifetime.start.p0(i64 8, ptr %15) #11
  call void @llvm.lifetime.start.p0(i64 4, ptr %16) #11
  call void @llvm.lifetime.start.p0(i64 4, ptr %17) #11
  call void @llvm.lifetime.start.p0(i64 4, ptr %18) #11
  %20 = load ptr, ptr %8, align 8, !tbaa !31
  %21 = call noundef ptr @strrchr(ptr noundef %20, i32 noundef 47) #13
  store ptr %21, ptr %15, align 8, !tbaa !31
  %22 = load ptr, ptr %15, align 8, !tbaa !31
  %23 = icmp ne ptr %22, null
  br i1 %23, label %24, label %27

24:                                               ; preds = %7
  %25 = load ptr, ptr %15, align 8, !tbaa !31
  %26 = getelementptr inbounds nuw i8, ptr %25, i32 1
  store ptr %26, ptr %15, align 8, !tbaa !31
  br label %29

27:                                               ; preds = %7
  %28 = load ptr, ptr %8, align 8, !tbaa !31
  store ptr %28, ptr %15, align 8, !tbaa !31
  br label %29

29:                                               ; preds = %27, %24
  %30 = load ptr, ptr %15, align 8, !tbaa !31
  %31 = load ptr, ptr %8, align 8, !tbaa !31
  %32 = ptrtoint ptr %30 to i64
  %33 = ptrtoint ptr %31 to i64
  %34 = sub i64 %32, %33
  %35 = trunc i64 %34 to i32
  store i32 %35, ptr %16, align 4, !tbaa !18
  %36 = load i32, ptr %10, align 4, !tbaa !18
  %37 = icmp slt i32 %36, 0
  br i1 %37, label %38, label %42

38:                                               ; preds = %29
  %39 = load ptr, ptr %9, align 8, !tbaa !31
  %40 = call i64 @strlen(ptr noundef %39) #13
  %41 = trunc i64 %40 to i32
  store i32 %41, ptr %10, align 4, !tbaa !18
  br label %42

42:                                               ; preds = %38, %29
  %43 = load ptr, ptr %11, align 8, !tbaa !31
  %44 = call i64 @strlen(ptr noundef %43) #13
  %45 = trunc i64 %44 to i32
  store i32 %45, ptr %17, align 4, !tbaa !18
  %46 = load i32, ptr %16, align 4, !tbaa !18
  %47 = load i32, ptr %10, align 4, !tbaa !18
  %48 = add nsw i32 %46, %47
  %49 = load i32, ptr %17, align 4, !tbaa !18
  %50 = add nsw i32 %48, %49
  store i32 %50, ptr %18, align 4, !tbaa !18
  %51 = load i32, ptr %18, align 4, !tbaa !18
  %52 = load i32, ptr %13, align 4, !tbaa !18
  %53 = icmp sge i32 %51, %52
  br i1 %53, label %54, label %61

54:                                               ; preds = %42
  %55 = load ptr, ptr @stderr, align 8, !tbaa !26
  %56 = load ptr, ptr %8, align 8, !tbaa !31
  %57 = load i32, ptr %18, align 4, !tbaa !18
  %58 = sext i32 %57 to i64
  %59 = call i32 (ptr, ptr, ...) @fprintf(ptr noundef %55, ptr noundef @.str.7, ptr noundef %56, i64 noundef %58) #11
  %60 = load ptr, ptr %14, align 8, !tbaa !10
  store i32 15, ptr %60, align 4, !tbaa !11
  store i32 1, ptr %19, align 4
  br label %84

61:                                               ; preds = %42
  %62 = load ptr, ptr %12, align 8, !tbaa !31
  %63 = load ptr, ptr %8, align 8, !tbaa !31
  %64 = load i32, ptr %16, align 4, !tbaa !18
  %65 = sext i32 %64 to i64
  call void @llvm.memcpy.p0.p0.i64(ptr align 1 %62, ptr align 1 %63, i64 %65, i1 false)
  %66 = load ptr, ptr %12, align 8, !tbaa !31
  %67 = load i32, ptr %16, align 4, !tbaa !18
  %68 = sext i32 %67 to i64
  %69 = getelementptr inbounds i8, ptr %66, i64 %68
  %70 = load ptr, ptr %9, align 8, !tbaa !31
  %71 = load i32, ptr %10, align 4, !tbaa !18
  %72 = sext i32 %71 to i64
  call void @llvm.memcpy.p0.p0.i64(ptr align 1 %69, ptr align 1 %70, i64 %72, i1 false)
  %73 = load ptr, ptr %12, align 8, !tbaa !31
  %74 = load i32, ptr %16, align 4, !tbaa !18
  %75 = sext i32 %74 to i64
  %76 = getelementptr inbounds i8, ptr %73, i64 %75
  %77 = load i32, ptr %10, align 4, !tbaa !18
  %78 = sext i32 %77 to i64
  %79 = getelementptr inbounds i8, ptr %76, i64 %78
  %80 = load ptr, ptr %11, align 8, !tbaa !31
  %81 = load i32, ptr %17, align 4, !tbaa !18
  %82 = add nsw i32 %81, 1
  %83 = sext i32 %82 to i64
  call void @llvm.memcpy.p0.p0.i64(ptr align 1 %79, ptr align 1 %80, i64 %83, i1 false)
  store i32 0, ptr %19, align 4
  br label %84

84:                                               ; preds = %61, %54
  call void @llvm.lifetime.end.p0(i64 4, ptr %18) #11
  call void @llvm.lifetime.end.p0(i64 4, ptr %17) #11
  call void @llvm.lifetime.end.p0(i64 4, ptr %16) #11
  call void @llvm.lifetime.end.p0(i64 8, ptr %15) #11
  %85 = load i32, ptr %19, align 4
  switch i32 %85, label %87 [
    i32 0, label %86
    i32 1, label %86
  ]

86:                                               ; preds = %84, %84
  ret void

87:                                               ; preds = %84
  unreachable
}

; Function Attrs: mustprogress uwtable
define internal void @_ZN6icu_77L13checkIDSuffixEPKcS1_iS1_PFvPvS1_S1_ES2_P10UErrorCode(ptr noundef %0, ptr noundef %1, i32 noundef %2, ptr noundef %3, ptr noundef %4, ptr noundef %5, ptr noundef %6) #0 {
  %8 = alloca ptr, align 8
  %9 = alloca ptr, align 8
  %10 = alloca i32, align 4
  %11 = alloca ptr, align 8
  %12 = alloca ptr, align 8
  %13 = alloca ptr, align 8
  %14 = alloca ptr, align 8
  %15 = alloca [200 x i8], align 16
  store ptr %0, ptr %8, align 8, !tbaa !31
  store ptr %1, ptr %9, align 8, !tbaa !31
  store i32 %2, ptr %10, align 4, !tbaa !18
  store ptr %3, ptr %11, align 8, !tbaa !31
  store ptr %4, ptr %12, align 8, !tbaa !10
  store ptr %5, ptr %13, align 8, !tbaa !10
  store ptr %6, ptr %14, align 8, !tbaa !10
  call void @llvm.lifetime.start.p0(i64 200, ptr %15) #11
  %16 = load ptr, ptr %8, align 8, !tbaa !31
  %17 = load ptr, ptr %9, align 8, !tbaa !31
  %18 = load i32, ptr %10, align 4, !tbaa !18
  %19 = load ptr, ptr %11, align 8, !tbaa !31
  %20 = getelementptr inbounds [200 x i8], ptr %15, i64 0, i64 0
  %21 = load ptr, ptr %14, align 8, !tbaa !10
  call void @_ZN6icu_77L14makeTargetNameEPKcS1_iS1_PciP10UErrorCode(ptr noundef %16, ptr noundef %17, i32 noundef %18, ptr noundef %19, ptr noundef %20, i32 noundef 200, ptr noundef %21)
  %22 = load ptr, ptr %14, align 8, !tbaa !10
  %23 = load i32, ptr %22, align 4, !tbaa !11
  %24 = call noundef signext i8 @_ZL9U_SUCCESS10UErrorCode(i32 noundef %23)
  %25 = icmp ne i8 %24, 0
  br i1 %25, label %26, label %31

26:                                               ; preds = %7
  %27 = load ptr, ptr %12, align 8, !tbaa !10
  %28 = load ptr, ptr %13, align 8, !tbaa !10
  %29 = load ptr, ptr %8, align 8, !tbaa !31
  %30 = getelementptr inbounds [200 x i8], ptr %15, i64 0, i64 0
  call void %27(ptr noundef %28, ptr noundef %29, ptr noundef %30)
  br label %31

31:                                               ; preds = %26, %7
  call void @llvm.lifetime.end.p0(i64 200, ptr %15) #11
  ret void
}