; Function Attrs: mustprogress uwtable
define internal fastcc void @_ZN6icu_77L13checkIDSuffixEPKcS1_iS1_PFvPvS1_S1_ES2_P10UErrorCode(ptr noundef %0, ptr noundef readonly captures(none) %1, i32 noundef %2, ptr noundef readonly captures(none) %3, ptr noundef readonly captures(none) %4, ptr noundef %5, ptr noundef nonnull captures(none) %6) unnamed_addr #0 {
  %8 = alloca [200 x i8], align 16
  call void @llvm.lifetime.start.p0(i64 200, ptr nonnull %8) #11
  %9 = tail call noundef ptr @strrchr(ptr noundef nonnull dereferenceable(1) %0, i32 noundef 47) #16
  %.not.i = icmp eq ptr %9, null
  %10 = getelementptr inbounds nuw i8, ptr %9, i64 1
  %.028.i = select i1 %.not.i, ptr %0, ptr %10
  %11 = ptrtoint ptr %.028.i to i64
  %12 = ptrtoint ptr %0 to i64
  %13 = sub i64 %11, %12
  %14 = trunc i64 %13 to i32
  %15 = icmp slt i32 %2, 0
  br i1 %15, label %16, label %19

16:                                               ; preds = %7
  %17 = tail call i64 @strlen(ptr noundef nonnull readonly dereferenceable(1) %1) #16
  %18 = trunc i64 %17 to i32
  br label %19

19:                                               ; preds = %16, %7
  %.0.i = phi i32 [ %18, %16 ], [ %2, %7 ]
  %20 = tail call i64 @strlen(ptr noundef nonnull readonly dereferenceable(1) %3) #16
  %21 = trunc i64 %20 to i32
  %22 = add nsw i32 %.0.i, %14
  %23 = add nsw i32 %22, %21
  %24 = icmp sgt i32 %23, 199
  br i1 %24, label %_ZN6icu_77L14makeTargetNameEPKcS1_iS1_PciP10UErrorCode.exit.thread, label %_ZN6icu_77L14makeTargetNameEPKcS1_iS1_PciP10UErrorCode.exit

_ZN6icu_77L14makeTargetNameEPKcS1_iS1_PciP10UErrorCode.exit.thread: ; preds = %19
  %25 = load ptr, ptr @stderr, align 8, !tbaa !20
  %26 = zext nneg i32 %23 to i64
  %27 = tail call i32 (ptr, ptr, ...) @fprintf(ptr noundef %25, ptr noundef nonnull @.str.7, ptr noundef nonnull %0, i64 noundef %26) #13
  store i32 15, ptr %6, align 4, !tbaa !3
  br label %36

_ZN6icu_77L14makeTargetNameEPKcS1_iS1_PciP10UErrorCode.exit: ; preds = %19
  %sext.i = shl i64 %13, 32
  %28 = ashr exact i64 %sext.i, 32
  call void @llvm.memcpy.p0.p0.i64(ptr nonnull align 16 %8, ptr nonnull align 1 %0, i64 %28, i1 false)
  %29 = getelementptr inbounds i8, ptr %8, i64 %28
  %30 = sext i32 %.0.i to i64
  call void @llvm.memcpy.p0.p0.i64(ptr nonnull align 1 %29, ptr readonly align 1 %1, i64 %30, i1 false)
  %31 = getelementptr inbounds i8, ptr %29, i64 %30
  %32 = shl i64 %20, 32
  %sext32.i = add i64 %32, 4294967296
  %33 = ashr exact i64 %sext32.i, 32
  call void @llvm.memcpy.p0.p0.i64(ptr nonnull align 1 %31, ptr nonnull readonly align 1 %3, i64 %33, i1 false)
  %.pre = load i32, ptr %6, align 4, !tbaa !3
  %34 = icmp sgt i32 %.pre, 0
  br i1 %34, label %36, label %35

35:                                               ; preds = %_ZN6icu_77L14makeTargetNameEPKcS1_iS1_PciP10UErrorCode.exit
  call void %4(ptr noundef %5, ptr noundef nonnull %0, ptr noundef nonnull %8)
  br label %36

36:                                               ; preds = %_ZN6icu_77L14makeTargetNameEPKcS1_iS1_PciP10UErrorCode.exit.thread, %35, %_ZN6icu_77L14makeTargetNameEPKcS1_iS1_PciP10UErrorCode.exit
  call void @llvm.lifetime.end.p0(i64 200, ptr nonnull %8) #11
  ret void
}